; Function Attrs: mustprogress nounwind uwtable
define internal noundef zeroext i1 @"_ZNSt17_Function_handlerIFvN4llvm13IRBuilderBase11InsertPointEEZNS0_15OpenMPIRBuilder14createParallelERKNS4_19LocationDescriptionES2_NS0_12function_refIFvS2_S2_EEENS8_IFS2_S2_S2_RNS0_5ValueESC_RPSB_EEESt8functionIS3_ESD_SD_NS0_3omp12ProcBindKindEbE3$_0E10_M_managerERSt9_Any_dataRKSN_St18_Manager_operation"(ptr noundef nonnull align 8 captures(none) dereferenceable(16) %0, ptr noundef nonnull readonly align 8 captures(none) dereferenceable(16) %1, i32 noundef %2) #0 align 2 {
  switch i32 %2, label %"_ZNSt14_Function_base13_Base_managerIZN4llvm15OpenMPIRBuilder14createParallelERKNS2_19LocationDescriptionENS1_13IRBuilderBase11InsertPointENS1_12function_refIFvS7_S7_EEENS8_IFS7_S7_S7_RNS1_5ValueESC_RPSB_EEESt8functionIFvS7_EESD_SD_NS1_3omp12ProcBindKindEbE3$_0E10_M_managerERSt9_Any_dataRKSO_St18_Manager_operation.exit" [
    i32 1, label %4
    i32 0, label %5
    i32 3, label %8
    i32 2, label %6
  ]

4:                                                ; preds = %3
  %.val = load ptr, ptr %1, align 8
  store ptr %.val, ptr %0, align 8
  br label %"_ZNSt14_Function_base13_Base_managerIZN4llvm15OpenMPIRBuilder14createParallelERKNS2_19LocationDescriptionENS1_13IRBuilderBase11InsertPointENS1_12function_refIFvS7_S7_EEENS8_IFS7_S7_S7_RNS1_5ValueESC_RPSB_EEESt8functionIFvS7_EESD_SD_NS1_3omp12ProcBindKindEbE3$_0E10_M_managerERSt9_Any_dataRKSO_St18_Manager_operation.exit"

5:                                                ; preds = %3
  store ptr null, ptr %0, align 8
  br label %"_ZNSt14_Function_base13_Base_managerIZN4llvm15OpenMPIRBuilder14createParallelERKNS2_19LocationDescriptionENS1_13IRBuilderBase11InsertPointENS1_12function_refIFvS7_S7_EEENS8_IFS7_S7_S7_RNS1_5ValueESC_RPSB_EEESt8functionIFvS7_EESD_SD_NS1_3omp12ProcBindKindEbE3$_0E10_M_managerERSt9_Any_dataRKSO_St18_Manager_operation.exit"

6:                                                ; preds = %3
  %.val5 = load ptr, ptr %1, align 8
  %7 = tail call noalias noundef nonnull dereferenceable(24) ptr @_Znwm(i64 noundef 24) #27
  tail call void @llvm.memcpy.p0.p0.i64(ptr noundef nonnull align 16 dereferenceable(24) %7, ptr noundef nonnull readonly align 8 dereferenceable(24) %.val5, i64 24, i1 false)
  store ptr %7, ptr %0, align 8
  br label %"_ZNSt14_Function_base13_Base_managerIZN4llvm15OpenMPIRBuilder14createParallelERKNS2_19LocationDescriptionENS1_13IRBuilderBase11InsertPointENS1_12function_refIFvS7_S7_EEENS8_IFS7_S7_S7_RNS1_5ValueESC_RPSB_EEESt8functionIFvS7_EESD_SD_NS1_3omp12ProcBindKindEbE3$_0E10_M_managerERSt9_Any_dataRKSO_St18_Manager_operation.exit"

8:                                                ; preds = %3
  %.val6.i = load ptr, ptr %0, align 8
  %9 = icmp eq ptr %.val6.i, null
  br i1 %9, label %"_ZNSt14_Function_base13_Base_managerIZN4llvm15OpenMPIRBuilder14createParallelERKNS2_19LocationDescriptionENS1_13IRBuilderBase11InsertPointENS1_12function_refIFvS7_S7_EEENS8_IFS7_S7_S7_RNS1_5ValueESC_RPSB_EEESt8functionIFvS7_EESD_SD_NS1_3omp12ProcBindKindEbE3$_0E10_M_managerERSt9_Any_dataRKSO_St18_Manager_operation.exit", label %10

10:                                               ; preds = %8
  tail call void @_ZdlPvm(ptr noundef nonnull %.val6.i, i64 noundef 24) #28
  br label %"_ZNSt14_Function_base13_Base_managerIZN4llvm15OpenMPIRBuilder14createParallelERKNS2_19LocationDescriptionENS1_13IRBuilderBase11InsertPointENS1_12function_refIFvS7_S7_EEENS8_IFS7_S7_S7_RNS1_5ValueESC_RPSB_EEESt8functionIFvS7_EESD_SD_NS1_3omp12ProcBindKindEbE3$_0E10_M_managerERSt9_Any_dataRKSO_St18_Manager_operation.exit"

"_ZNSt14_Function_base13_Base_managerIZN4llvm15OpenMPIRBuilder14createParallelERKNS2_19LocationDescriptionENS1_13IRBuilderBase11InsertPointENS1_12function_refIFvS7_S7_EEENS8_IFS7_S7_S7_RNS1_5ValueESC_RPSB_EEESt8functionIFvS7_EESD_SD_NS1_3omp12ProcBindKindEbE3$_0E10_M_managerERSt9_Any_dataRKSO_St18_Manager_operation.exit": ; preds = %3, %10, %8, %6, %5, %4
  ret i1 false
}